Certificate:
    Data:
        Version: 3 (0x2)
        Serial Number:
            08:45:11:0b:a3:5d:36:57:15:91:40:50:12:ab:63:86:7d:49:6b
        Signature Algorithm: sha256WithRSAEncryption
        Issuer: CN = certificate-authority
        Validity
            Not Before: Feb 10 13:17:27 2023 GMT
            Not After : Feb  7 13:17:27 2033 GMT
        Subject: CN = certificate-authority
        Subject Public Key Info:
            Public Key Algorithm: rsaEncryption
                Public-Key: (2048 bit)
                Modulus:
                    00:ba:92:ab:2e:df:88:45:8c:5d:dd:c8:8a:3a:7a:
                    96:90:d2:a4:0e:08:ab:31:ca:ea:12:8d:7b:4f:75:
                    4d:13:93:57:8c:ec:f6:a3:ff:d7:1f:19:5b:e3:78:
                    9e:4b:60:8b:0c:f9:cd:b4:d0:01:f4:bc:bd:7e:6a:
                    27:e1:82:41:f8:99:3a:98:6d:bd:41:4b:c0:0a:0c:
                    f6:c4:23:5c:e6:63:3e:1d:a7:f6:b3:57:dc:0f:53:
                    59:20:65:21:91:1d:a0:ad:c5:c1:35:7e:72:30:b9:
                    85:e1:10:12:21:69:33:45:c0:73:47:5b:f0:61:39:
                    78:a2:11:d4:a5:72:54:78:fd:6a:f7:c6:40:d5:ed:
                    9e:8e:74:8f:10:6e:a1:c3:9f:30:eb:68:4d:e5:d5:
                    81:ca:57:c4:bf:be:0f:81:f7:84:79:6c:ce:a0:f6:
                    55:06:45:9b:c9:b3:33:6b:cc:1a:53:be:ad:aa:39:
                    c4:e0:43:5d:e3:47:92:00:a2:11:7d:3b:8c:93:6c:
                    d1:e4:75:46:3f:dc:65:a9:c7:89:ed:0c:c8:7c:e6:
                    8c:e0:59:8a:d5:a6:42:7f:93:0a:21:60:9e:91:37:
                    0c:84:75:1f:42:70:52:ad:ac:b0:49:b8:18:5d:d4:
                    9d:97:2f:57:f0:14:8b:8d:d4:5d:69:af:db:51:a7:
                    88:e9
                Exponent: 65537 (0x10001)
        X509v3 extensions:
            X509v3 Subject Key Identifier: 
                2B:22:E7:2D:7F:32:68:73:08:B5:A1:18:36:FF:24:8A:BA:4A:52:B7
            X509v3 Authority Key Identifier: 
                2B:22:E7:2D:7F:32:68:73:08:B5:A1:18:36:FF:24:8A:BA:4A:52:B7
            X509v3 Basic Constraints: critical
                CA:TRUE
    Signature Algorithm: sha256WithRSAEncryption
    Signature Value:
        ac:6d:a6:59:90:0e:59:0c:62:65:02:8f:b4:ea:72:2d:c5:ae:
        fb:25:71:51:11:eb:2a:12:c1:ad:ac:15:4d:17:3a:6f:61:cb:
        ca:35:4b:cf:3e:c6:f6:02:7f:aa:4e:b4:b5:8a:05:a5:e7:f5:
        1d:b9:97:d3:2a:9d:f5:43:5d:3f:a2:70:25:22:df:8a:2e:b0:
        ec:0f:c7:b4:98:fa:ee:79:24:d7:11:d9:e9:03:f7:42:c8:0a:
        44:40:38:8f:40:69:a2:8f:42:f5:5b:a5:e5:f1:f9:15:0c:62:
        49:51:50:3c:e5:cf:55:e9:4d:20:1c:29:36:68:46:2f:10:b7:
        ee:f0:0c:85:97:6e:06:14:6a:45:29:51:48:0e:24:df:47:76:
        64:b1:c6:9a:82:30:a0:dd:f2:35:4d:56:39:a1:37:ae:91:9d:
        bf:b7:07:fd:d5:32:8c:ea:87:aa:41:6c:7d:01:3f:6e:36:42:
        3a:dd:68:d9:95:72:46:01:ca:58:e6:a9:40:ed:17:e5:62:82:
        3d:98:85:70:0b:1e:fe:be:0b:a2:bd:9a:6b:f8:44:3b:8b:be:
        c9:98:58:bf:05:5f:cb:19:ef:f2:66:53:ea:e3:59:05:01:c2:
        cf:9f:a3:dd:1f:29:c4:94:e4:02:33:05:64:33:bc:93:90:39:
        64:69:c9:d2
-----BEGIN CERTIFICATE-----
MIIDIDCCAgigAwIBAgITCEURC6NdNlcVkUBQEqtjhn1JazANBgkqhkiG9w0BAQsF
ADAgMR4wHAYDVQQDDBVjZXJ0aWZpY2F0ZS1hdXRob3JpdHkwHhcNMjMwMjEwMTMx
NzI3WhcNMzMwMjA3MTMxNzI3WjAgMR4wHAYDVQQDDBVjZXJ0aWZpY2F0ZS1hdXRo
b3JpdHkwggEiMA0GCSqGSIb3DQEBAQUAA4IBDwAwggEKAoIBAQC6kqsu34hFjF3d
yIo6epaQ0qQOCKsxyuoSjXtPdU0Tk1eM7Paj/9cfGVvjeJ5LYIsM+c200AH0vL1+
aifhgkH4mTqYbb1BS8AKDPbEI1zmYz4dp/azV9wPU1kgZSGRHaCtxcE1fnIwuYXh
EBIhaTNFwHNHW/BhOXiiEdSlclR4/Wr3xkDV7Z6OdI8QbqHDnzDraE3l1YHKV8S/
vg+B94R5bM6g9lUGRZvJszNrzBpTvq2qOcTgQ13jR5IAohF9O4yTbNHkdUY/3GWp
x4ntDMh85ozgWYrVpkJ/kwohYJ6RNwyEdR9CcFKtrLBJuBhd1J2XL1fwFIuN1F1p
r9tRp4jpAgMBAAGjUzBRMB0GA1UdDgQWBBQrIuctfzJocwi1oRg2/ySKukpStzAf
BgNVHSMEGDAWgBQrIuctfzJocwi1oRg2/ySKukpStzAPBgNVHRMBAf8EBTADAQH/
MA0GCSqGSIb3DQEBCwUAA4IBAQCsbaZZkA5ZDGJlAo+06nItxa77JXFREesqEsGt
rBVNFzpvYcvKNUvPPsb2An+qTrS1igWl5/UduZfTKp31Q10/onAlIt+KLrDsD8e0
mPrueSTXEdnpA/dCyApEQDiPQGmij0L1W6Xl8fkVDGJJUVA85c9V6U0gHCk2aEYv
ELfu8AyFl24GFGpFKVFIDiTfR3ZkscaagjCg3fI1TVY5oTeukZ2/twf91TKM6oeq
QWx9AT9uNkI63WjZlXJGAcpY5qlA7RflYoI9mIVwCx7+vguivZpr+EQ7i77JmFi/
BV/LGe/yZlPq41kFAcLPn6PdHynElOQCMwVkM7yTkDlkacnS
-----END CERTIFICATE-----
