Certificate:
    Data:
        Version: 1 (0x0)
        Serial Number:
            37:41:65:b3:eb:5b:66:bf:48:29:ba:69:1a:8a:14:e8:c5:65:64:78
        Signature Algorithm: sha256WithRSAEncryption
        Issuer: CN = certificate-authority
        Validity
            Not Before: Feb 10 13:17:27 2023 GMT
            Not After : Feb  7 13:17:27 2033 GMT
        Subject: CN = pg-client
        Subject Public Key Info:
            Public Key Algorithm: rsaEncryption
                Public-Key: (2048 bit)
                Modulus:
                    00:8a:00:a5:9f:6e:5e:74:87:23:da:01:35:d8:e3:
                    5d:92:0d:f7:95:06:14:d3:84:0d:3d:19:5b:49:4c:
                    e0:bd:01:e5:85:b3:52:4b:8a:dc:7e:a0:18:f0:7a:
                    eb:a8:8e:13:3e:8e:ea:3b:c9:e0:6b:8e:fd:4c:b1:
                    52:a6:79:38:f5:ce:00:56:dc:04:a6:7d:ce:11:c0:
                    a8:a4:a2:4a:76:64:ce:03:a0:4a:fa:f7:65:ed:72:
                    6a:6e:7b:9c:03:05:76:72:b4:99:0f:73:74:00:41:
                    7c:b9:e8:73:7d:32:1c:9b:f1:bd:a6:df:99:ba:9a:
                    e2:f8:4f:ec:5b:51:98:37:cd:7f:ea:ef:f0:c4:2d:
                    37:49:38:15:77:61:e5:d2:7c:44:c9:09:90:67:f4:
                    ab:42:c4:52:2e:dc:b4:ba:a6:b1:ff:35:e7:e9:ce:
                    4e:6f:f7:79:0d:37:43:94:cc:8d:dd:55:7d:45:61:
                    8e:48:3b:71:75:01:35:6b:64:38:f8:03:0b:af:78:
                    a8:b8:b8:78:0a:d8:b0:0c:f4:60:1a:9d:d7:36:b0:
                    b7:49:eb:a9:90:fd:74:1e:c6:a6:37:ca:f8:2b:66:
                    d7:c6:52:95:9a:30:e4:44:90:07:69:ab:17:6b:9e:
                    b8:43:86:e7:b1:b1:5a:f9:42:28:49:32:8e:9c:0c:
                    9e:df
                Exponent: 65537 (0x10001)
    Signature Algorithm: sha256WithRSAEncryption
    Signature Value:
        a7:0e:13:52:a3:89:5c:5d:c6:7c:40:32:b8:bb:53:48:c8:29:
        59:dd:3d:92:f8:9b:8b:cd:08:06:0d:e7:ff:f6:31:a6:54:07:
        d3:cf:9d:0c:06:ba:71:6e:42:bf:fc:52:cc:b1:47:4d:87:32:
        19:dc:c6:96:3c:2d:0d:72:36:da:ec:c7:d3:a8:41:c3:31:fc:
        95:b9:fa:5c:15:76:9a:a3:af:71:04:19:aa:5b:47:fc:2b:b1:
        13:6c:d4:d4:3c:82:86:c3:95:83:02:a4:20:8b:a6:b8:3f:e5:
        16:04:ae:d2:4d:e8:b1:ae:64:bd:ea:8c:8d:92:66:77:17:1d:
        03:a9:4e:95:24:ad:d1:22:4a:bc:11:d9:57:74:d7:9a:70:bd:
        70:a7:31:6b:4c:61:f3:dd:c9:16:a8:c3:6e:13:3b:ef:f8:42:
        ac:be:37:ab:c8:d2:ab:f1:4e:0e:eb:ec:f9:51:6c:55:d4:12:
        dc:97:14:fc:70:2c:cc:98:2d:f7:1e:82:3e:2a:c4:35:af:37:
        42:33:cb:be:4b:20:cc:74:df:f5:6b:2f:69:35:74:70:5f:45:
        83:6a:a8:27:07:ac:22:df:82:e9:4d:8a:d5:46:e8:60:63:bd:
        b1:8d:cb:d9:38:b3:d6:0c:42:a4:92:f8:c5:56:5e:cd:c1:4a:
        81:dd:98:0a
-----BEGIN CERTIFICATE-----
MIICuzCCAaMCFDdBZbPrW2a/SCm6aRqKFOjFZWR4MA0GCSqGSIb3DQEBCwUAMCAx
HjAcBgNVBAMMFWNlcnRpZmljYXRlLWF1dGhvcml0eTAeFw0yMzAyMTAxMzE3Mjda
Fw0zMzAyMDcxMzE3MjdaMBQxEjAQBgNVBAMMCXBnLWNsaWVudDCCASIwDQYJKoZI
hvcNAQEBBQADggEPADCCAQoCggEBAIoApZ9uXnSHI9oBNdjjXZIN95UGFNOEDT0Z
W0lM4L0B5YWzUkuK3H6gGPB666iOEz6O6jvJ4GuO/UyxUqZ5OPXOAFbcBKZ9zhHA
qKSiSnZkzgOgSvr3Ze1yam57nAMFdnK0mQ9zdABBfLnoc30yHJvxvabfmbqa4vhP
7FtRmDfNf+rv8MQtN0k4FXdh5dJ8RMkJkGf0q0LEUi7ctLqmsf815+nOTm/3eQ03
Q5TMjd1VfUVhjkg7cXUBNWtkOPgDC694qLi4eArYsAz0YBqd1zawt0nrqZD9dB7G
pjfK+Ctm18ZSlZow5ESQB2mrF2ueuEOG57GxWvlCKEkyjpwMnt8CAwEAATANBgkq
hkiG9w0BAQsFAAOCAQEApw4TUqOJXF3GfEAyuLtTSMgpWd09kvibi80IBg3n//Yx
plQH08+dDAa6cW5Cv/xSzLFHTYcyGdzGljwtDXI22uzH06hBwzH8lbn6XBV2mqOv
cQQZqltH/CuxE2zU1DyChsOVgwKkIIumuD/lFgSu0k3osa5kveqMjZJmdxcdA6lO
lSSt0SJKvBHZV3TXmnC9cKcxa0xh893JFqjDbhM77/hCrL43q8jSq/FODuvs+VFs
VdQS3JcU/HAszJgt9x6CPirENa83QjPLvksgzHTf9WsvaTV0cF9Fg2qoJwesIt+C
6U2K1UboYGO9sY3L2Tiz1gxCpJL4xVZezcFKgd2YCg==
-----END CERTIFICATE-----
