Certificate:
    Data:
        Version: 3 (0x2)
        Serial Number:
            32:1f:d0:e5:bc:4a:a4:2f:d1:37:10:78:d6:18:f7:a4:70:0e:ec:61
        Signature Algorithm: sha256WithRSAEncryption
        Issuer: CN = certificate-authority
        Validity
            Not Before: Dec 28 17:07:03 2023 GMT
            Not After : Dec 25 17:07:03 2033 GMT
        Subject: CN = certificate-authority
        Subject Public Key Info:
            Public Key Algorithm: rsaEncryption
                Public-Key: (2048 bit)
                Modulus:
                    00:b0:64:06:61:9c:c9:f3:e1:89:fb:fa:28:cb:10:
                    e2:7a:e2:1f:1b:e3:4c:ea:07:7c:cf:0e:09:27:ca:
                    30:9a:69:a9:18:c2:22:81:29:c9:1e:20:74:51:53:
                    46:3f:8e:ce:4b:eb:55:ec:72:e7:8f:a0:0d:b3:5f:
                    d8:be:b7:25:78:4a:48:4c:b6:dc:ff:22:76:9d:29:
                    30:fa:c4:fd:7a:6d:6b:b8:8f:25:b4:50:5c:b4:bf:
                    c0:7f:a9:ed:90:87:ea:52:4b:d1:49:05:7d:92:46:
                    7a:7f:5c:7e:9a:85:59:e6:66:6e:12:e5:bf:d5:65:
                    ed:b7:53:bf:b0:a9:30:0f:c7:e6:91:30:b5:80:23:
                    a8:7f:7e:23:79:f5:92:64:55:96:14:9c:dc:1c:c8:
                    aa:1d:ac:df:c6:bb:6b:8d:ae:0c:48:6b:19:0c:1c:
                    bb:86:1c:7b:3e:04:5d:73:36:e8:d7:6d:2d:a3:31:
                    84:c9:73:93:3e:e8:f4:76:fd:28:2f:61:c1:e7:6c:
                    98:84:1e:3b:98:98:4d:f2:93:b5:47:1b:07:e3:51:
                    9f:82:90:85:6a:51:aa:05:bc:83:1b:f5:2e:04:b1:
                    4b:87:83:9d:e5:50:b6:cf:e4:48:29:62:37:28:b7:
                    7a:4b:1f:28:63:3e:95:bd:9c:ff:47:5f:4b:0e:a1:
                    fb:15
                Exponent: 65537 (0x10001)
        X509v3 extensions:
            X509v3 Subject Key Identifier: 
                18:72:A9:D3:6B:CB:B8:07:6B:28:1A:B9:17:E7:30:41:33:77:AE:10
            X509v3 Authority Key Identifier: 
                18:72:A9:D3:6B:CB:B8:07:6B:28:1A:B9:17:E7:30:41:33:77:AE:10
            X509v3 Basic Constraints: critical
                CA:TRUE
    Signature Algorithm: sha256WithRSAEncryption
    Signature Value:
        4b:f2:4a:25:7a:e0:e0:b4:8d:4e:96:f7:71:fb:c8:21:55:5f:
        e5:c5:d4:ca:ba:b2:d6:a7:ce:35:e2:ba:5c:00:93:5f:c3:00:
        18:81:c9:94:5d:7e:b1:09:28:1e:79:e4:35:ca:97:7f:6b:1a:
        e6:ff:c4:5e:60:68:a3:11:54:67:f1:3a:6e:3c:1c:30:0b:e5:
        37:91:bc:e1:3f:14:ed:ed:a3:90:3c:f7:02:cc:a5:4b:dd:bd:
        40:28:a0:d2:33:67:63:41:dd:23:09:3e:0b:62:e8:5d:b5:43:
        c4:7a:ac:7f:9f:e0:02:60:58:3b:01:77:b6:85:54:94:b0:11:
        c3:22:fd:b7:08:be:01:d5:ab:e7:2b:51:db:e8:a7:b4:e7:e5:
        8d:a0:c2:cc:f0:ae:54:bc:81:7e:6c:24:ee:f6:12:36:dd:e0:
        32:fb:b6:5b:c1:8d:31:c0:78:d3:3a:ce:cf:1c:43:ee:49:03:
        00:79:a6:01:91:1b:b8:a0:f9:de:29:a3:98:86:3c:4e:02:4b:
        be:31:fd:26:19:04:2b:26:c9:03:47:ae:dd:3c:cb:a4:f1:a4:
        fb:ce:46:c1:2b:96:c7:15:a1:c9:54:fb:d5:46:62:10:f4:6a:
        a9:f4:76:14:94:71:d4:24:c2:08:22:63:29:7c:17:45:eb:46:
        19:7c:a5:7a
-----BEGIN CERTIFICATE-----
MIIDITCCAgmgAwIBAgIUMh/Q5bxKpC/RNxB41hj3pHAO7GEwDQYJKoZIhvcNAQEL
BQAwIDEeMBwGA1UEAwwVY2VydGlmaWNhdGUtYXV0aG9yaXR5MB4XDTIzMTIyODE3
MDcwM1oXDTMzMTIyNTE3MDcwM1owIDEeMBwGA1UEAwwVY2VydGlmaWNhdGUtYXV0
aG9yaXR5MIIBIjANBgkqhkiG9w0BAQEFAAOCAQ8AMIIBCgKCAQEAsGQGYZzJ8+GJ
+/ooyxDieuIfG+NM6gd8zw4JJ8owmmmpGMIigSnJHiB0UVNGP47OS+tV7HLnj6AN
s1/YvrcleEpITLbc/yJ2nSkw+sT9em1ruI8ltFBctL/Af6ntkIfqUkvRSQV9kkZ6
f1x+moVZ5mZuEuW/1WXtt1O/sKkwD8fmkTC1gCOof34jefWSZFWWFJzcHMiqHazf
xrtrja4MSGsZDBy7hhx7PgRdczbo120tozGEyXOTPuj0dv0oL2HB52yYhB47mJhN
8pO1RxsH41GfgpCFalGqBbyDG/UuBLFLh4Od5VC2z+RIKWI3KLd6Sx8oYz6VvZz/
R19LDqH7FQIDAQABo1MwUTAdBgNVHQ4EFgQUGHKp02vLuAdrKBq5F+cwQTN3rhAw
HwYDVR0jBBgwFoAUGHKp02vLuAdrKBq5F+cwQTN3rhAwDwYDVR0TAQH/BAUwAwEB
/zANBgkqhkiG9w0BAQsFAAOCAQEAS/JKJXrg4LSNTpb3cfvIIVVf5cXUyrqy1qfO
NeK6XACTX8MAGIHJlF1+sQkoHnnkNcqXf2sa5v/EXmBooxFUZ/E6bjwcMAvlN5G8
4T8U7e2jkDz3AsylS929QCig0jNnY0HdIwk+C2LoXbVDxHqsf5/gAmBYOwF3toVU
lLARwyL9twi+AdWr5ytR2+intOfljaDCzPCuVLyBfmwk7vYSNt3gMvu2W8GNMcB4
0zrOzxxD7kkDAHmmAZEbuKD53imjmIY8TgJLvjH9JhkEKybJA0eu3TzLpPGk+85G
wSuWxxWhyVT71UZiEPRqqfR2FJRx1CTCCCJjKXwXRetGGXyleg==
-----END CERTIFICATE-----
