Certificate:
    Data:
        Version: 1 (0x0)
        Serial Number:
            64:e9:5b:8e:31:6c:85:9f:ef:da:c4:6e:83:9f:7a:27:be:37:bd:0b
        Signature Algorithm: sha256WithRSAEncryption
        Issuer: CN = certificate-authority
        Validity
            Not Before: Dec 28 17:07:04 2023 GMT
            Not After : Dec 25 17:07:04 2033 GMT
        Subject: CN = pg-client
        Subject Public Key Info:
            Public Key Algorithm: rsaEncryption
                Public-Key: (2048 bit)
                Modulus:
                    00:d0:77:e5:d9:ca:98:2b:18:e1:7f:b1:ce:8e:96:
                    cf:50:cc:3f:af:56:00:44:4c:a7:ac:dc:2b:f0:14:
                    19:96:30:06:90:cd:3e:b9:86:87:58:1c:7c:b1:07:
                    62:83:da:a3:4f:f2:28:7f:c4:ff:3a:e6:a9:2e:2c:
                    6d:84:8b:5b:c4:e7:6a:eb:04:52:ba:15:22:e3:e3:
                    39:6a:cf:1f:98:b5:03:b3:ec:12:46:7e:46:cc:32:
                    4c:98:0c:ee:e0:a4:71:f6:d9:25:d2:0d:a0:3d:d9:
                    4a:c9:8e:d1:85:0b:47:e8:68:26:70:19:90:7e:24:
                    9a:97:6a:19:fc:7a:77:13:79:54:d6:68:4b:be:23:
                    26:29:31:26:6a:ec:de:05:87:be:a1:cf:2b:8f:8e:
                    7b:45:28:de:d2:71:e7:b0:7b:33:c0:1e:d1:aa:30:
                    90:88:d2:f1:b0:50:87:00:ea:6c:81:01:c1:ed:9a:
                    ec:93:76:97:da:10:f1:a4:a0:3e:87:b5:48:08:fa:
                    0c:4e:5c:1b:49:f5:34:4b:3b:77:be:f3:b6:e2:85:
                    8a:09:1c:f0:85:ba:2a:26:4b:7e:1a:48:e8:6d:00:
                    f3:8b:53:5d:49:87:3e:34:d8:b7:8c:2f:db:5f:ab:
                    60:b2:0f:9e:8f:53:4e:08:9e:5e:51:3d:20:70:b7:
                    ef:bb
                Exponent: 65537 (0x10001)
    Signature Algorithm: sha256WithRSAEncryption
    Signature Value:
        29:6c:a9:e9:09:61:65:f9:2b:c7:74:d8:d2:f7:55:48:95:03:
        00:fd:8a:61:11:99:db:47:51:32:6e:90:27:22:ab:3f:c5:c3:
        ce:67:78:37:8a:03:c6:88:01:0f:05:87:8c:cb:94:be:06:74:
        67:b2:9d:2f:90:0e:14:7f:27:82:f4:91:fc:38:fc:c3:d8:83:
        c5:d3:9e:ad:9d:20:75:17:9f:da:4f:e4:e2:71:b1:2f:b6:96:
        33:1d:5a:17:ff:e3:33:09:a7:65:58:fd:6a:7d:e7:9d:be:dd:
        f6:2a:18:27:74:08:5e:70:98:c9:0b:e8:36:27:61:29:83:56:
        d1:cf:5d:db:db:25:52:5d:48:ca:ed:e2:f5:df:52:8b:6a:02:
        ed:03:79:99:ec:c0:52:7a:d0:c9:21:9f:94:0a:1b:a0:41:0e:
        75:a2:d0:8a:5c:a8:4c:7c:1b:c5:ec:0e:52:19:e8:41:bf:4f:
        11:a5:28:c4:38:c5:01:2b:89:19:a9:36:13:0b:60:4f:ba:a9:
        89:8d:97:b4:1a:8c:08:f8:57:cf:f3:ca:8c:85:d3:b9:c0:d1:
        90:33:e4:5f:89:55:3a:8e:07:b4:2e:0b:bf:49:03:c9:2c:94:
        6a:98:a4:b5:bb:6d:75:70:0b:57:a7:ff:97:cf:7d:b2:31:ac:
        0a:e0:5b:12
-----BEGIN CERTIFICATE-----
MIICuzCCAaMCFGTpW44xbIWf79rEboOfeie+N70LMA0GCSqGSIb3DQEBCwUAMCAx
HjAcBgNVBAMMFWNlcnRpZmljYXRlLWF1dGhvcml0eTAeFw0yMzEyMjgxNzA3MDRa
Fw0zMzEyMjUxNzA3MDRaMBQxEjAQBgNVBAMMCXBnLWNsaWVudDCCASIwDQYJKoZI
hvcNAQEBBQADggEPADCCAQoCggEBANB35dnKmCsY4X+xzo6Wz1DMP69WAERMp6zc
K/AUGZYwBpDNPrmGh1gcfLEHYoPao0/yKH/E/zrmqS4sbYSLW8TnausEUroVIuPj
OWrPH5i1A7PsEkZ+RswyTJgM7uCkcfbZJdINoD3ZSsmO0YULR+hoJnAZkH4kmpdq
Gfx6dxN5VNZoS74jJikxJmrs3gWHvqHPK4+Oe0Uo3tJx57B7M8Ae0aowkIjS8bBQ
hwDqbIEBwe2a7JN2l9oQ8aSgPoe1SAj6DE5cG0n1NEs7d77ztuKFigkc8IW6KiZL
fhpI6G0A84tTXUmHPjTYt4wv21+rYLIPno9TTgieXlE9IHC377sCAwEAATANBgkq
hkiG9w0BAQsFAAOCAQEAKWyp6QlhZfkrx3TY0vdVSJUDAP2KYRGZ20dRMm6QJyKr
P8XDzmd4N4oDxogBDwWHjMuUvgZ0Z7KdL5AOFH8ngvSR/Dj8w9iDxdOerZ0gdRef
2k/k4nGxL7aWMx1aF//jMwmnZVj9an3nnb7d9ioYJ3QIXnCYyQvoNidhKYNW0c9d
29slUl1Iyu3i9d9Si2oC7QN5mezAUnrQySGflAoboEEOdaLQilyoTHwbxewOUhno
Qb9PEaUoxDjFASuJGak2EwtgT7qpiY2XtBqMCPhXz/PKjIXTucDRkDPkX4lVOo4H
tC4Lv0kDySyUapiktbttdXALV6f/l899sjGsCuBbEg==
-----END CERTIFICATE-----
